; Function Attrs: nofree norecurse nosync nounwind memory(argmem: read) uwtable
define ptr @ossl_prov_get_keymgmt_free(ptr noundef readonly captures(none) %0) local_unnamed_addr #0 {
  br label %2

2:                                                ; preds = %6, %1
  %.0 = phi ptr [ %0, %1 ], [ %7, %6 ]
  %3 = load i32, ptr %.0, align 8, !tbaa !3
  switch i32 %3, label %6 [
    i32 0, label %.loopexit
    i32 10, label %4
  ]

4:                                                ; preds = %2
  %5 = getelementptr i8, ptr %.0, i64 8
  %.0.val = load ptr, ptr %5, align 8, !tbaa !9
  br label %.loopexit

6:                                                ; preds = %2
  %7 = getelementptr inbounds nuw i8, ptr %.0, i64 16
  br label %2, !llvm.loop !12

.loopexit:                                        ; preds = %2, %4
  %.05 = phi ptr [ %.0.val, %4 ], [ null, %2 ]
  ret ptr %.05
}